target datalayout = "e-m:e-p270:32:32-p271:32:32-p272:64:64-i64:64-i128:128-f80:128-n8:16:32:64-S128"
target triple = "x86_64-pc-linux-gnu"

%struct.expert_field = type { i32, i32 }
%struct._packet_info = type { ptr, ptr, i32, i32, %struct.nstime_t, %struct.nstime_t, %struct.nstime_t, i8, ptr, ptr, ptr, ptr, %struct._address, %struct._address, %struct._address, %struct._address, %struct._address, %struct._address, i32, ptr, i8, [3 x i8], %struct.anon, i32, i32, i32, i32, ptr, i8, ptr, ptr, i16, i16, i32, i32, i16, i32, i32, ptr, ptr, ptr, i8, i8, i16, i16, i16, i32, i16, i16, ptr, ptr, ptr, ptr, ptr, i32, i32 }
%struct.nstime_t = type { i64, i32 }
%struct._address = type { i32, i32, ptr, ptr }
%struct.anon = type { i8, [3 x i8] }

@hf_at_number = internal global i32 0, align 4
@hf_at_type = internal global i32 0, align 4
@hf_at_subaddress = internal global i32 0, align 4
@hf_at_subaddress_type = internal global i32 0, align 4
@hf_at_alpha = internal global i32 0, align 4
@hf_at_cli_validity = internal global i32 0, align 4
@hf_at_priority = internal global i32 0, align 4
@hf_ccwa_show_result_code = internal global i32 0, align 4
@hf_ccwa_mode = internal global i32 0, align 4
@hf_ccwa_class = internal global i32 0, align 4
@ei_at_type = internal global %struct.expert_field zeroinitializer, align 4

; Function Attrs: nounwind null_pointer_is_valid sspstrong uwtable
define internal zeroext i1 @check_ccwa(i32 noundef %0, i16 noundef zeroext %1) #4 {
  %3 = alloca i1, align 1
  %4 = alloca i32, align 4
  %5 = alloca i16, align 2
  store i32 %0, ptr %4, align 4
  store i16 %1, ptr %5, align 2
  %6 = load i32, ptr %4, align 4
  %7 = icmp eq i32 %6, 2
  br i1 %7, label %8, label %21

8:                                                ; preds = %2
  %9 = load i16, ptr %5, align 2
  %10 = zext i16 %9 to i32
  %11 = icmp eq i32 %10, 61
  br i1 %11, label %20, label %12

12:                                               ; preds = %8
  %13 = load i16, ptr %5, align 2
  %14 = zext i16 %13 to i32
  %15 = icmp eq i32 %14, 63
  br i1 %15, label %20, label %16

16:                                               ; preds = %12
  %17 = load i16, ptr %5, align 2
  %18 = zext i16 %17 to i32
  %19 = icmp eq i32 %18, 15679
  br i1 %19, label %20, label %21

20:                                               ; preds = %16, %12, %8
  store i1 true, ptr %3, align 1
  br label %30

21:                                               ; preds = %16, %2
  %22 = load i32, ptr %4, align 4
  %23 = icmp eq i32 %22, 1
  br i1 %23, label %24, label %29

24:                                               ; preds = %21
  %25 = load i16, ptr %5, align 2
  %26 = zext i16 %25 to i32
  %27 = icmp eq i32 %26, 58
  br i1 %27, label %28, label %29

28:                                               ; preds = %24
  store i1 true, ptr %3, align 1
  br label %30

29:                                               ; preds = %24, %21
  store i1 false, ptr %3, align 1
  br label %30

30:                                               ; preds = %29, %28, %20
  %31 = load i1, ptr %3, align 1
  ret i1 %31
}

; Function Attrs: null_pointer_is_valid sspstrong uwtable
define internal zeroext i1 @dissect_ccwa_parameter(ptr noundef %0, ptr noundef %1, ptr noundef %2, i32 noundef %3, i32 noundef %4, i16 noundef zeroext %5, ptr noundef %6, i32 noundef %7, i32 noundef %8, ptr noundef %9, ptr noundef %10) #0 {
  %12 = alloca i1, align 1
  %13 = alloca ptr, align 8
  %14 = alloca ptr, align 8
  %15 = alloca ptr, align 8
  %16 = alloca i32, align 4
  %17 = alloca i32, align 4
  %18 = alloca i16, align 2
  %19 = alloca ptr, align 8
  %20 = alloca i32, align 4
  %21 = alloca i32, align 4
  %22 = alloca ptr, align 8
  %23 = alloca ptr, align 8
  %24 = alloca ptr, align 8
  %25 = alloca i32, align 4
  %26 = alloca i32, align 4
  store ptr %0, ptr %13, align 8
  store ptr %1, ptr %14, align 8
  store ptr %2, ptr %15, align 8
  store i32 %3, ptr %16, align 4
  store i32 %4, ptr %17, align 4
  store i16 %5, ptr %18, align 2
  store ptr %6, ptr %19, align 8
  store i32 %7, ptr %20, align 4
  store i32 %8, ptr %21, align 4
  store ptr %9, ptr %22, align 8
  store ptr %10, ptr %23, align 8
  call void @llvm.lifetime.start.p0(i64 8, ptr %24) #12
  call void @llvm.lifetime.start.p0(i64 4, ptr %25) #12
  %27 = load i32, ptr %17, align 4
  %28 = load i16, ptr %18, align 2
  %29 = call zeroext i1 @check_ccwa(i32 noundef %27, i16 noundef zeroext %28)
  br i1 %29, label %31, label %30

30:                                               ; preds = %11
  store i1 false, ptr %12, align 1
  store i32 1, ptr %26, align 4
  br label %201

31:                                               ; preds = %11
  %32 = load i32, ptr %17, align 4
  %33 = icmp eq i32 %32, 2
  br i1 %33, label %34, label %38

34:                                               ; preds = %31
  %35 = load i32, ptr %20, align 4
  %36 = icmp ugt i32 %35, 2
  br i1 %36, label %37, label %38

37:                                               ; preds = %34
  store i1 false, ptr %12, align 1
  store i32 1, ptr %26, align 4
  br label %201

38:                                               ; preds = %34, %31
  %39 = load i32, ptr %17, align 4
  %40 = icmp eq i32 %39, 1
  br i1 %40, label %41, label %45

41:                                               ; preds = %38
  %42 = load i32, ptr %20, align 4
  %43 = icmp ugt i32 %42, 7
  br i1 %43, label %44, label %45

44:                                               ; preds = %41
  store i1 false, ptr %12, align 1
  store i32 1, ptr %26, align 4
  br label %201

45:                                               ; preds = %41, %38
  %46 = load i32, ptr %17, align 4
  %47 = icmp eq i32 %46, 2
  br i1 %47, label %48, label %93

48:                                               ; preds = %45
  %49 = load i32, ptr %20, align 4
  switch i32 %49, label %92 [
    i32 0, label %50
    i32 1, label %64
    i32 2, label %78
  ]

50:                                               ; preds = %48
  %51 = load ptr, ptr %14, align 8
  %52 = getelementptr inbounds nuw %struct._packet_info, ptr %51, i32 0, i32 51
  %53 = load ptr, ptr %52, align 8
  %54 = load ptr, ptr %19, align 8
  %55 = load i32, ptr %21, align 4
  %56 = call i32 @get_uint_parameter(ptr noundef %53, ptr noundef %54, i32 noundef %55)
  store i32 %56, ptr %25, align 4
  %57 = load ptr, ptr %15, align 8
  %58 = load i32, ptr @hf_ccwa_show_result_code, align 4
  %59 = load ptr, ptr %13, align 8
  %60 = load i32, ptr %16, align 4
  %61 = load i32, ptr %21, align 4
  %62 = load i32, ptr %25, align 4
  %63 = call ptr @proto_tree_add_uint(ptr noundef %57, i32 noundef %58, ptr noundef %59, i32 noundef %60, i32 noundef %61, i32 noundef %62)
  br label %92

64:                                               ; preds = %48
  %65 = load ptr, ptr %14, align 8
  %66 = getelementptr inbounds nuw %struct._packet_info, ptr %65, i32 0, i32 51
  %67 = load ptr, ptr %66, align 8
  %68 = load ptr, ptr %19, align 8
  %69 = load i32, ptr %21, align 4
  %70 = call i32 @get_uint_parameter(ptr noundef %67, ptr noundef %68, i32 noundef %69)
  store i32 %70, ptr %25, align 4
  %71 = load ptr, ptr %15, align 8
  %72 = load i32, ptr @hf_ccwa_mode, align 4
  %73 = load ptr, ptr %13, align 8
  %74 = load i32, ptr %16, align 4
  %75 = load i32, ptr %21, align 4
  %76 = load i32, ptr %25, align 4
  %77 = call ptr @proto_tree_add_uint(ptr noundef %71, i32 noundef %72, ptr noundef %73, i32 noundef %74, i32 noundef %75, i32 noundef %76)
  br label %92

78:                                               ; preds = %48
  %79 = load ptr, ptr %14, align 8
  %80 = getelementptr inbounds nuw %struct._packet_info, ptr %79, i32 0, i32 51
  %81 = load ptr, ptr %80, align 8
  %82 = load ptr, ptr %19, align 8
  %83 = load i32, ptr %21, align 4
  %84 = call i32 @get_uint_parameter(ptr noundef %81, ptr noundef %82, i32 noundef %83)
  store i32 %84, ptr %25, align 4
  %85 = load ptr, ptr %15, align 8
  %86 = load i32, ptr @hf_ccwa_class, align 4
  %87 = load ptr, ptr %13, align 8
  %88 = load i32, ptr %16, align 4
  %89 = load i32, ptr %21, align 4
  %90 = load i32, ptr %25, align 4
  %91 = call ptr @proto_tree_add_uint(ptr noundef %85, i32 noundef %86, ptr noundef %87, i32 noundef %88, i32 noundef %89, i32 noundef %90)
  br label %92

92:                                               ; preds = %48, %78, %64, %50
  br label %93

93:                                               ; preds = %92, %45
  %94 = load i32, ptr %17, align 4
  %95 = icmp eq i32 %94, 1
  br i1 %95, label %96, label %200

96:                                               ; preds = %93
  %97 = load i32, ptr %20, align 4
  switch i32 %97, label %199 [
    i32 0, label %98
    i32 1, label %105
    i32 2, label %129
    i32 3, label %143
    i32 4, label %150
    i32 5, label %164
    i32 6, label %171
    i32 7, label %185
  ]

98:                                               ; preds = %96
  %99 = load ptr, ptr %15, align 8
  %100 = load i32, ptr @hf_at_number, align 4
  %101 = load ptr, ptr %13, align 8
  %102 = load i32, ptr %16, align 4
  %103 = load i32, ptr %21, align 4
  %104 = call ptr @proto_tree_add_item(ptr noundef %99, i32 noundef %100, ptr noundef %101, i32 noundef %102, i32 noundef %103, i32 noundef 0)
  br label %199

105:                                              ; preds = %96
  %106 = load ptr, ptr %14, align 8
  %107 = getelementptr inbounds nuw %struct._packet_info, ptr %106, i32 0, i32 51
  %108 = load ptr, ptr %107, align 8
  %109 = load ptr, ptr %19, align 8
  %110 = load i32, ptr %21, align 4
  %111 = call i32 @get_uint_parameter(ptr noundef %108, ptr noundef %109, i32 noundef %110)
  store i32 %111, ptr %25, align 4
  %112 = load ptr, ptr %15, align 8
  %113 = load i32, ptr @hf_at_type, align 4
  %114 = load ptr, ptr %13, align 8
  %115 = load i32, ptr %16, align 4
  %116 = load i32, ptr %21, align 4
  %117 = load i32, ptr %25, align 4
  %118 = call ptr @proto_tree_add_uint(ptr noundef %112, i32 noundef %113, ptr noundef %114, i32 noundef %115, i32 noundef %116, i32 noundef %117)
  store ptr %118, ptr %24, align 8
  %119 = load i32, ptr %25, align 4
  %120 = icmp ult i32 %119, 128
  br i1 %120, label %124, label %121

121:                                              ; preds = %105
  %122 = load i32, ptr %25, align 4
  %123 = icmp ugt i32 %122, 175
  br i1 %123, label %124, label %128

124:                                              ; preds = %121, %105
  %125 = load ptr, ptr %14, align 8
  %126 = load ptr, ptr %24, align 8
  %127 = call ptr @expert_add_info(ptr noundef %125, ptr noundef %126, ptr noundef @ei_at_type)
  br label %128

128:                                              ; preds = %124, %121
  br label %199

129:                                              ; preds = %96
  %130 = load ptr, ptr %14, align 8
  %131 = getelementptr inbounds nuw %struct._packet_info, ptr %130, i32 0, i32 51
  %132 = load ptr, ptr %131, align 8
  %133 = load ptr, ptr %19, align 8
  %134 = load i32, ptr %21, align 4
  %135 = call i32 @get_uint_parameter(ptr noundef %132, ptr noundef %133, i32 noundef %134)
  store i32 %135, ptr %25, align 4
  %136 = load ptr, ptr %15, align 8
  %137 = load i32, ptr @hf_ccwa_class, align 4
  %138 = load ptr, ptr %13, align 8
  %139 = load i32, ptr %16, align 4
  %140 = load i32, ptr %21, align 4
  %141 = load i32, ptr %25, align 4
  %142 = call ptr @proto_tree_add_uint(ptr noundef %136, i32 noundef %137, ptr noundef %138, i32 noundef %139, i32 noundef %140, i32 noundef %141)
  br label %199

143:                                              ; preds = %96
  %144 = load ptr, ptr %15, align 8
  %145 = load i32, ptr @hf_at_alpha, align 4
  %146 = load ptr, ptr %13, align 8
  %147 = load i32, ptr %16, align 4
  %148 = load i32, ptr %21, align 4
  %149 = call ptr @proto_tree_add_item(ptr noundef %144, i32 noundef %145, ptr noundef %146, i32 noundef %147, i32 noundef %148, i32 noundef 0)
  br label %199

150:                                              ; preds = %96
  %151 = load ptr, ptr %14, align 8
  %152 = getelementptr inbounds nuw %struct._packet_info, ptr %151, i32 0, i32 51
  %153 = load ptr, ptr %152, align 8
  %154 = load ptr, ptr %19, align 8
  %155 = load i32, ptr %21, align 4
  %156 = call i32 @get_uint_parameter(ptr noundef %153, ptr noundef %154, i32 noundef %155)
  store i32 %156, ptr %25, align 4
  %157 = load ptr, ptr %15, align 8
  %158 = load i32, ptr @hf_at_cli_validity, align 4
  %159 = load ptr, ptr %13, align 8
  %160 = load i32, ptr %16, align 4
  %161 = load i32, ptr %21, align 4
  %162 = load i32, ptr %25, align 4
  %163 = call ptr @proto_tree_add_uint(ptr noundef %157, i32 noundef %158, ptr noundef %159, i32 noundef %160, i32 noundef %161, i32 noundef %162)
  br label %199

164:                                              ; preds = %96
  %165 = load ptr, ptr %15, align 8
  %166 = load i32, ptr @hf_at_subaddress, align 4
  %167 = load ptr, ptr %13, align 8
  %168 = load i32, ptr %16, align 4
  %169 = load i32, ptr %21, align 4
  %170 = call ptr @proto_tree_add_item(ptr noundef %165, i32 noundef %166, ptr noundef %167, i32 noundef %168, i32 noundef %169, i32 noundef 0)
  br label %199

171:                                              ; preds = %96
  %172 = load ptr, ptr %14, align 8
  %173 = getelementptr inbounds nuw %struct._packet_info, ptr %172, i32 0, i32 51
  %174 = load ptr, ptr %173, align 8
  %175 = load ptr, ptr %19, align 8
  %176 = load i32, ptr %21, align 4
  %177 = call i32 @get_uint_parameter(ptr noundef %174, ptr noundef %175, i32 noundef %176)
  store i32 %177, ptr %25, align 4
  %178 = load ptr, ptr %15, align 8
  %179 = load i32, ptr @hf_at_subaddress_type, align 4
  %180 = load ptr, ptr %13, align 8
  %181 = load i32, ptr %16, align 4
  %182 = load i32, ptr %21, align 4
  %183 = load i32, ptr %25, align 4
  %184 = call ptr @proto_tree_add_uint(ptr noundef %178, i32 noundef %179, ptr noundef %180, i32 noundef %181, i32 noundef %182, i32 noundef %183)
  br label %199

185:                                              ; preds = %96
  %186 = load ptr, ptr %14, align 8
  %187 = getelementptr inbounds nuw %struct._packet_info, ptr %186, i32 0, i32 51
  %188 = load ptr, ptr %187, align 8
  %189 = load ptr, ptr %19, align 8
  %190 = load i32, ptr %21, align 4
  %191 = call i32 @get_uint_parameter(ptr noundef %188, ptr noundef %189, i32 noundef %190)
  store i32 %191, ptr %25, align 4
  %192 = load ptr, ptr %15, align 8
  %193 = load i32, ptr @hf_at_priority, align 4
  %194 = load ptr, ptr %13, align 8
  %195 = load i32, ptr %16, align 4
  %196 = load i32, ptr %21, align 4
  %197 = load i32, ptr %25, align 4
  %198 = call ptr @proto_tree_add_uint(ptr noundef %192, i32 noundef %193, ptr noundef %194, i32 noundef %195, i32 noundef %196, i32 noundef %197)
  br label %199

199:                                              ; preds = %96, %185, %171, %164, %150, %143, %129, %128, %98
  br label %200

200:                                              ; preds = %199, %93
  store i1 true, ptr %12, align 1
  store i32 1, ptr %26, align 4
  br label %201

201:                                              ; preds = %200, %44, %37, %30
  call void @llvm.lifetime.end.p0(i64 4, ptr %25) #12
  call void @llvm.lifetime.end.p0(i64 8, ptr %24) #12
  %202 = load i1, ptr %12, align 1
  ret i1 %202
}